target datalayout = "e-m:e-p270:32:32-p271:32:32-p272:64:64-i64:64-i128:128-f80:128-n8:16:32:64-S128"
target triple = "x86_64-pc-linux-gnu"

; Function Attrs: nounwind uwtable
define void @denseAddIdentity(ptr noundef %0, i64 noundef %1) #0 {
  %3 = alloca ptr, align 8
  %4 = alloca i64, align 8
  %5 = alloca i64, align 8
  store ptr %0, ptr %3, align 8, !tbaa !18
  store i64 %1, ptr %4, align 8, !tbaa !19
  call void @llvm.lifetime.start.p0(i64 8, ptr %5) #4
  store i64 0, ptr %5, align 8, !tbaa !19
  br label %6

6:                                                ; preds = %19, %2
  %7 = load i64, ptr %5, align 8, !tbaa !19
  %8 = load i64, ptr %4, align 8, !tbaa !19
  %9 = icmp slt i64 %7, %8
  br i1 %9, label %10, label %22

10:                                               ; preds = %6
  %11 = load ptr, ptr %3, align 8, !tbaa !18
  %12 = load i64, ptr %5, align 8, !tbaa !19
  %13 = getelementptr inbounds ptr, ptr %11, i64 %12
  %14 = load ptr, ptr %13, align 8, !tbaa !20
  %15 = load i64, ptr %5, align 8, !tbaa !19
  %16 = getelementptr inbounds double, ptr %14, i64 %15
  %17 = load double, ptr %16, align 8, !tbaa !21
  %18 = fadd double %17, 1.000000e+00
  store double %18, ptr %16, align 8, !tbaa !21
  br label %19

19:                                               ; preds = %10
  %20 = load i64, ptr %5, align 8, !tbaa !19
  %21 = add nsw i64 %20, 1
  store i64 %21, ptr %5, align 8, !tbaa !19
  br label %6, !llvm.loop !62

22:                                               ; preds = %6
  call void @llvm.lifetime.end.p0(i64 8, ptr %5) #4
  ret void
}