; Function Attrs: nofree norecurse nosync nounwind memory(readwrite, inaccessiblemem: none) uwtable
define void @denseAddIdentity(ptr noundef readonly captures(none) %0, i64 noundef %1) local_unnamed_addr #2 {
  %3 = icmp sgt i64 %1, 0
  br i1 %3, label %.lr.ph, label %._crit_edge

.lr.ph:                                           ; preds = %2, %.lr.ph
  %.05 = phi i64 [ %9, %.lr.ph ], [ 0, %2 ]
  %4 = getelementptr inbounds nuw ptr, ptr %0, i64 %.05
  %5 = load ptr, ptr %4, align 8, !tbaa !16
  %6 = getelementptr inbounds nuw double, ptr %5, i64 %.05
  %7 = load double, ptr %6, align 8, !tbaa !17
  %8 = fadd double %7, 1.000000e+00
  store double %8, ptr %6, align 8, !tbaa !17
  %9 = add nuw nsw i64 %.05, 1
  %exitcond.not = icmp eq i64 %9, %1
  br i1 %exitcond.not, label %._crit_edge, label %.lr.ph, !llvm.loop !55

._crit_edge:                                      ; preds = %.lr.ph, %2
  ret void
}